target datalayout = "e-m:e-p270:32:32-p271:32:32-p272:64:64-i64:64-i128:128-f80:128-n8:16:32:64-S128"
target triple = "x86_64-pc-linux-gnu"

%struct.UConverter = type { ptr, ptr, ptr, ptr, ptr, ptr, ptr, i32, i8, i8, i8, i8, i8, [7 x i8], i32, i32, i32, i32, i8, i8, i8, i8, i8, i8, i8, i8, [8 x i8], [32 x i8], [2 x i16], [2 x i16], [32 x i16], i32, [19 x i16], [31 x i8], i8, i8, i8, i32 }

; Function Attrs: mustprogress nounwind uwtable
define void @ucnv_fromUWriteBytes_77(ptr noundef %0, ptr noundef %1, i32 noundef %2, ptr noundef %3, ptr noundef %4, ptr noundef %5, i32 noundef %6, ptr noundef %7) #1 {
  %9 = alloca ptr, align 8
  %10 = alloca ptr, align 8
  %11 = alloca i32, align 4
  %12 = alloca ptr, align 8
  %13 = alloca ptr, align 8
  %14 = alloca ptr, align 8
  %15 = alloca i32, align 4
  %16 = alloca ptr, align 8
  %17 = alloca ptr, align 8
  %18 = alloca ptr, align 8
  store ptr %0, ptr %9, align 8, !tbaa !3
  store ptr %1, ptr %10, align 8, !tbaa !17
  store i32 %2, ptr %11, align 4, !tbaa !19
  store ptr %3, ptr %12, align 8, !tbaa !21
  store ptr %4, ptr %13, align 8, !tbaa !17
  store ptr %5, ptr %14, align 8, !tbaa !24
  store i32 %6, ptr %15, align 4, !tbaa !19
  store ptr %7, ptr %16, align 8, !tbaa !12
  call void @llvm.lifetime.start.p0(i64 8, ptr %17) #3
  %19 = load ptr, ptr %12, align 8, !tbaa !21
  %20 = load ptr, ptr %19, align 8, !tbaa !17
  store ptr %20, ptr %17, align 8, !tbaa !17
  call void @llvm.lifetime.start.p0(i64 8, ptr %18) #3
  %21 = load ptr, ptr %14, align 8, !tbaa !24
  %22 = icmp eq ptr %21, null
  br i1 %22, label %27, label %23

23:                                               ; preds = %8
  %24 = load ptr, ptr %14, align 8, !tbaa !24
  %25 = load ptr, ptr %24, align 8, !tbaa !26
  store ptr %25, ptr %18, align 8, !tbaa !26
  %26 = icmp eq ptr %25, null
  br i1 %26, label %27, label %46

27:                                               ; preds = %23, %8
  br label %28

28:                                               ; preds = %37, %27
  %29 = load i32, ptr %11, align 4, !tbaa !19
  %30 = icmp sgt i32 %29, 0
  br i1 %30, label %31, label %35

31:                                               ; preds = %28
  %32 = load ptr, ptr %17, align 8, !tbaa !17
  %33 = load ptr, ptr %13, align 8, !tbaa !17
  %34 = icmp ult ptr %32, %33
  br label %35

35:                                               ; preds = %31, %28
  %36 = phi i1 [ false, %28 ], [ %34, %31 ]
  br i1 %36, label %37, label %45

37:                                               ; preds = %35
  %38 = load ptr, ptr %10, align 8, !tbaa !17
  %39 = getelementptr inbounds nuw i8, ptr %38, i32 1
  store ptr %39, ptr %10, align 8, !tbaa !17
  %40 = load i8, ptr %38, align 1, !tbaa !28
  %41 = load ptr, ptr %17, align 8, !tbaa !17
  %42 = getelementptr inbounds nuw i8, ptr %41, i32 1
  store ptr %42, ptr %17, align 8, !tbaa !17
  store i8 %40, ptr %41, align 1, !tbaa !28
  %43 = load i32, ptr %11, align 4, !tbaa !19
  %44 = add nsw i32 %43, -1
  store i32 %44, ptr %11, align 4, !tbaa !19
  br label %28, !llvm.loop !29

45:                                               ; preds = %35
  br label %70

46:                                               ; preds = %23
  br label %47

47:                                               ; preds = %56, %46
  %48 = load i32, ptr %11, align 4, !tbaa !19
  %49 = icmp sgt i32 %48, 0
  br i1 %49, label %50, label %54

50:                                               ; preds = %47
  %51 = load ptr, ptr %17, align 8, !tbaa !17
  %52 = load ptr, ptr %13, align 8, !tbaa !17
  %53 = icmp ult ptr %51, %52
  br label %54

54:                                               ; preds = %50, %47
  %55 = phi i1 [ false, %47 ], [ %53, %50 ]
  br i1 %55, label %56, label %67

56:                                               ; preds = %54
  %57 = load ptr, ptr %10, align 8, !tbaa !17
  %58 = getelementptr inbounds nuw i8, ptr %57, i32 1
  store ptr %58, ptr %10, align 8, !tbaa !17
  %59 = load i8, ptr %57, align 1, !tbaa !28
  %60 = load ptr, ptr %17, align 8, !tbaa !17
  %61 = getelementptr inbounds nuw i8, ptr %60, i32 1
  store ptr %61, ptr %17, align 8, !tbaa !17
  store i8 %59, ptr %60, align 1, !tbaa !28
  %62 = load i32, ptr %15, align 4, !tbaa !19
  %63 = load ptr, ptr %18, align 8, !tbaa !26
  %64 = getelementptr inbounds nuw i32, ptr %63, i32 1
  store ptr %64, ptr %18, align 8, !tbaa !26
  store i32 %62, ptr %63, align 4, !tbaa !19
  %65 = load i32, ptr %11, align 4, !tbaa !19
  %66 = add nsw i32 %65, -1
  store i32 %66, ptr %11, align 4, !tbaa !19
  br label %47, !llvm.loop !31

67:                                               ; preds = %54
  %68 = load ptr, ptr %18, align 8, !tbaa !26
  %69 = load ptr, ptr %14, align 8, !tbaa !24
  store ptr %68, ptr %69, align 8, !tbaa !26
  br label %70

70:                                               ; preds = %67, %45
  %71 = load ptr, ptr %17, align 8, !tbaa !17
  %72 = load ptr, ptr %12, align 8, !tbaa !21
  store ptr %71, ptr %72, align 8, !tbaa !17
  %73 = load i32, ptr %11, align 4, !tbaa !19
  %74 = icmp sgt i32 %73, 0
  br i1 %74, label %75, label %99

75:                                               ; preds = %70
  %76 = load ptr, ptr %9, align 8, !tbaa !3
  %77 = icmp ne ptr %76, null
  br i1 %77, label %78, label %97

78:                                               ; preds = %75
  %79 = load ptr, ptr %9, align 8, !tbaa !3
  %80 = getelementptr inbounds nuw %struct.UConverter, ptr %79, i32 0, i32 27
  %81 = getelementptr inbounds [32 x i8], ptr %80, i64 0, i64 0
  store ptr %81, ptr %17, align 8, !tbaa !17
  %82 = load i32, ptr %11, align 4, !tbaa !19
  %83 = trunc i32 %82 to i8
  %84 = load ptr, ptr %9, align 8, !tbaa !3
  %85 = getelementptr inbounds nuw %struct.UConverter, ptr %84, i32 0, i32 21
  store i8 %83, ptr %85, align 1, !tbaa !32
  br label %86

86:                                               ; preds = %92, %78
  %87 = load ptr, ptr %10, align 8, !tbaa !17
  %88 = getelementptr inbounds nuw i8, ptr %87, i32 1
  store ptr %88, ptr %10, align 8, !tbaa !17
  %89 = load i8, ptr %87, align 1, !tbaa !28
  %90 = load ptr, ptr %17, align 8, !tbaa !17
  %91 = getelementptr inbounds nuw i8, ptr %90, i32 1
  store ptr %91, ptr %17, align 8, !tbaa !17
  store i8 %89, ptr %90, align 1, !tbaa !28
  br label %92

92:                                               ; preds = %86
  %93 = load i32, ptr %11, align 4, !tbaa !19
  %94 = add nsw i32 %93, -1
  store i32 %94, ptr %11, align 4, !tbaa !19
  %95 = icmp sgt i32 %94, 0
  br i1 %95, label %86, label %96, !llvm.loop !36

96:                                               ; preds = %92
  br label %97

97:                                               ; preds = %96, %75
  %98 = load ptr, ptr %16, align 8, !tbaa !12
  store i32 15, ptr %98, align 4, !tbaa !37
  br label %99

99:                                               ; preds = %97, %70
  call void @llvm.lifetime.end.p0(i64 8, ptr %18) #3
  call void @llvm.lifetime.end.p0(i64 8, ptr %17) #3
  ret void
}